target datalayout = "e-m:e-p270:32:32-p271:32:32-p272:64:64-i64:64-i128:128-f80:128-n8:16:32:64-S128"
target triple = "x86_64-pc-linux-gnu"

%struct.Sat_MmFixed_t_ = type { i32, i32, i32, i32, ptr, i32, i32, i32, ptr, i32, i32 }
%struct.Sat_MmStep_t_ = type { i32, ptr, i32, ptr, i32, i32, ptr }

; Function Attrs: nounwind uwtable
define void @Sat_MmFixedEntryRecycle(ptr noundef %0, ptr noundef %1) #0 {
  %3 = alloca ptr, align 8
  %4 = alloca ptr, align 8
  store ptr %0, ptr %3, align 8, !tbaa !7
  store ptr %1, ptr %4, align 8, !tbaa !24
  %5 = load ptr, ptr %3, align 8, !tbaa !7
  %6 = getelementptr inbounds nuw %struct.Sat_MmFixed_t_, ptr %5, i32 0, i32 2
  %7 = load i32, ptr %6, align 8, !tbaa !15
  %8 = add nsw i32 %7, -1
  store i32 %8, ptr %6, align 8, !tbaa !15
  %9 = load ptr, ptr %3, align 8, !tbaa !7
  %10 = getelementptr inbounds nuw %struct.Sat_MmFixed_t_, ptr %9, i32 0, i32 4
  %11 = load ptr, ptr %10, align 8, !tbaa !16
  %12 = load ptr, ptr %4, align 8, !tbaa !24
  store ptr %11, ptr %12, align 8, !tbaa !24
  %13 = load ptr, ptr %4, align 8, !tbaa !24
  %14 = load ptr, ptr %3, align 8, !tbaa !7
  %15 = getelementptr inbounds nuw %struct.Sat_MmFixed_t_, ptr %14, i32 0, i32 4
  store ptr %13, ptr %15, align 8, !tbaa !16
  ret void
}

; Function Attrs: nounwind uwtable
define void @Sat_MmStepEntryRecycle(ptr noundef %0, ptr noundef %1, i32 noundef %2) #0 {
  %4 = alloca ptr, align 8
  %5 = alloca ptr, align 8
  %6 = alloca i32, align 4
  store ptr %0, ptr %4, align 8, !tbaa !43
  store ptr %1, ptr %5, align 8, !tbaa !24
  store i32 %2, ptr %6, align 4, !tbaa !3
  %7 = load i32, ptr %6, align 4, !tbaa !3
  %8 = icmp eq i32 %7, 0
  br i1 %8, label %9, label %10

9:                                                ; preds = %3
  br label %26

10:                                               ; preds = %3
  %11 = load i32, ptr %6, align 4, !tbaa !3
  %12 = load ptr, ptr %4, align 8, !tbaa !43
  %13 = getelementptr inbounds nuw %struct.Sat_MmStep_t_, ptr %12, i32 0, i32 2
  %14 = load i32, ptr %13, align 8, !tbaa !50
  %15 = icmp sgt i32 %11, %14
  br i1 %15, label %16, label %17

16:                                               ; preds = %10
  br label %26

17:                                               ; preds = %10
  %18 = load ptr, ptr %4, align 8, !tbaa !43
  %19 = getelementptr inbounds nuw %struct.Sat_MmStep_t_, ptr %18, i32 0, i32 3
  %20 = load ptr, ptr %19, align 8, !tbaa !51
  %21 = load i32, ptr %6, align 4, !tbaa !3
  %22 = sext i32 %21 to i64
  %23 = getelementptr inbounds ptr, ptr %20, i64 %22
  %24 = load ptr, ptr %23, align 8, !tbaa !7
  %25 = load ptr, ptr %5, align 8, !tbaa !24
  call void @Sat_MmFixedEntryRecycle(ptr noundef %24, ptr noundef %25)
  br label %26

26:                                               ; preds = %17, %16, %9
  ret void
}